target datalayout = "e-m:e-p270:32:32-p271:32:32-p272:64:64-i64:64-i128:128-f80:128-n8:16:32:64-S128"
target triple = "x86_64-pc-linux-gnu"

%class.symbol = type { ptr }
%class.expr_pattern_match = type { ptr, %class.ref_vector, %class.svector, %class.svector.1, %class.ptr_vector.3, %class.ptr_vector.5, %class.ptr_vector.5 }
%class.ref_vector = type { %class.ref_vector_core }
%class.ref_vector_core = type { %class.ref_manager_wrapper, %class.ptr_vector }
%class.ref_manager_wrapper = type { ptr }
%class.ptr_vector = type { %class.vector }
%class.vector = type { ptr }
%class.svector = type { %class.vector.0 }
%class.vector.0 = type { ptr }
%class.svector.1 = type { %class.vector.2 }
%class.vector.2 = type { ptr }
%class.ptr_vector.3 = type { %class.vector.4 }
%class.vector.4 = type { ptr }
%class.ptr_vector.5 = type { %class.vector.6 }
%class.vector.6 = type { ptr }
%class.quantifier = type { %class.expr, i32, i32, ptr, ptr, i32, i32, i8, i8, %class.symbol, %class.symbol, i32, i32, [0 x i8] }
%class.expr = type { %class.ast }
%class.ast = type { i32, i32, i32, i32 }

; Function Attrs: mustprogress nounwind uwtable
define linkonce_odr hidden noundef i32 @_ZNK6vectorIP10quantifierLb0EjE4sizeEv(ptr noundef nonnull align 8 dereferenceable(8) %0) #5 comdat align 2 {
  %2 = alloca i32, align 4
  %3 = alloca ptr, align 8
  store ptr %0, ptr %3, align 8, !tbaa !422
  %4 = load ptr, ptr %3, align 8
  %5 = getelementptr inbounds nuw %class.vector, ptr %4, i32 0, i32 0
  %6 = load ptr, ptr %5, align 8, !tbaa !424
  %7 = icmp eq ptr %6, null
  br i1 %7, label %8, label %9

8:                                                ; preds = %1
  store i32 0, ptr %2, align 4
  br label %14

9:                                                ; preds = %1
  %10 = getelementptr inbounds nuw %class.vector, ptr %4, i32 0, i32 0
  %11 = load ptr, ptr %10, align 8, !tbaa !424
  %12 = getelementptr inbounds i32, ptr %11, i64 -1
  %13 = load i32, ptr %12, align 4, !tbaa !28
  store i32 %13, ptr %2, align 4
  br label %14

14:                                               ; preds = %9, %8
  %15 = load i32, ptr %2, align 4
  ret i32 %15
}

; Function Attrs: mustprogress uwtable
define linkonce_odr hidden noundef i32 @_ZNK15ref_vector_coreI10quantifier19ref_manager_wrapperIS0_11ast_managerEE4sizeEv(ptr noundef nonnull align 8 dereferenceable(16) %0) #4 comdat align 2 {
  %2 = alloca ptr, align 8
  store ptr %0, ptr %2, align 8, !tbaa !47
  %3 = load ptr, ptr %2, align 8
  %4 = getelementptr inbounds nuw %class.ref_vector_core, ptr %3, i32 0, i32 1
  %5 = call noundef i32 @_ZNK6vectorIP10quantifierLb0EjE4sizeEv(ptr noundef nonnull align 8 dereferenceable(8) %4)
  ret i32 %5
}

; Function Attrs: mustprogress nounwind uwtable
define linkonce_odr hidden noundef nonnull align 8 dereferenceable(8) ptr @_ZN6vectorIP4exprLb0EjEixEj(ptr noundef nonnull align 8 dereferenceable(8) %0, i32 noundef %1) #5 comdat align 2 {
  %3 = alloca ptr, align 8
  %4 = alloca i32, align 4
  store ptr %0, ptr %3, align 8, !tbaa !32
  store i32 %1, ptr %4, align 4, !tbaa !28
  %5 = load ptr, ptr %3, align 8
  %6 = getelementptr inbounds nuw %class.vector.4, ptr %5, i32 0, i32 0
  %7 = load ptr, ptr %6, align 8, !tbaa !34
  %8 = load i32, ptr %4, align 4, !tbaa !28
  %9 = zext i32 %8 to i64
  %10 = getelementptr inbounds nuw ptr, ptr %7, i64 %9
  ret ptr %10
}

; Function Attrs: mustprogress nounwind uwtable
define linkonce_odr hidden noundef ptr @_ZNK10quantifier8get_exprEv(ptr noundef nonnull align 8 dereferenceable(80) %0) #5 comdat align 2 {
  %2 = alloca ptr, align 8
  store ptr %0, ptr %2, align 8, !tbaa !20
  %3 = load ptr, ptr %2, align 8
  %4 = getelementptr inbounds nuw %class.quantifier, ptr %3, i32 0, i32 3
  %5 = load ptr, ptr %4, align 8, !tbaa !38
  ret ptr %5
}

; Function Attrs: mustprogress nounwind uwtable
define linkonce_odr hidden noundef zeroext i1 @_ZNK6vectorIP4exprLb0EjE5emptyEv(ptr noundef nonnull align 8 dereferenceable(8) %0) #5 comdat align 2 {
  %2 = alloca ptr, align 8
  store ptr %0, ptr %2, align 8, !tbaa !32
  %3 = load ptr, ptr %2, align 8
  %4 = getelementptr inbounds nuw %class.vector.4, ptr %3, i32 0, i32 0
  %5 = load ptr, ptr %4, align 8, !tbaa !34
  %6 = icmp eq ptr %5, null
  br i1 %6, label %13, label %7

7:                                                ; preds = %1
  %8 = getelementptr inbounds nuw %class.vector.4, ptr %3, i32 0, i32 0
  %9 = load ptr, ptr %8, align 8, !tbaa !34
  %10 = getelementptr inbounds i32, ptr %9, i64 -1
  %11 = load i32, ptr %10, align 4, !tbaa !28
  %12 = icmp eq i32 %11, 0
  br label %13

13:                                               ; preds = %7, %1
  %14 = phi i1 [ true, %1 ], [ %12, %7 ]
  ret i1 %14
}

; Function Attrs: mustprogress uwtable
define hidden noundef zeroext i1 @_ZN18expr_pattern_match16match_quantifierEP10quantifierR10ref_vectorI3app11ast_managerERj(ptr noundef nonnull align 8 dereferenceable(64) %0, ptr noundef %1, ptr noundef nonnull align 8 dereferenceable(16) %2, ptr noundef nonnull align 4 dereferenceable(4) %3) #4 align 2 {
  %5 = alloca i1, align 1
  %6 = alloca ptr, align 8
  %7 = alloca ptr, align 8
  %8 = alloca ptr, align 8
  %9 = alloca ptr, align 8
  %10 = alloca i32, align 4
  %11 = alloca i32, align 4
  store ptr %0, ptr %6, align 8, !tbaa !3
  store ptr %1, ptr %7, align 8, !tbaa !20
  store ptr %2, ptr %8, align 8, !tbaa !22
  store ptr %3, ptr %9, align 8, !tbaa !24
  %12 = load ptr, ptr %6, align 8
  %13 = getelementptr inbounds nuw %class.expr_pattern_match, ptr %12, i32 0, i32 4
  %14 = call noundef zeroext i1 @_ZNK6vectorIP4exprLb0EjE5emptyEv(ptr noundef nonnull align 8 dereferenceable(8) %13)
  br i1 %14, label %15, label %16

15:                                               ; preds = %4
  store i1 false, ptr %5, align 1
  br label %41

16:                                               ; preds = %4
  %17 = load ptr, ptr %7, align 8, !tbaa !20
  %18 = call noundef ptr @_ZNK10quantifier8get_exprEv(ptr noundef nonnull align 8 dereferenceable(80) %17)
  %19 = getelementptr inbounds nuw %class.expr_pattern_match, ptr %12, i32 0, i32 4
  %20 = call noundef nonnull align 8 dereferenceable(8) ptr @_ZN6vectorIP4exprLb0EjEixEj(ptr noundef nonnull align 8 dereferenceable(8) %19, i32 noundef 0)
  store ptr %18, ptr %20, align 8, !tbaa !26
  call void @llvm.lifetime.start.p0(i64 4, ptr %10) #3
  store i32 0, ptr %10, align 4, !tbaa !28
  br label %21

21:                                               ; preds = %35, %16
  %22 = load i32, ptr %10, align 4, !tbaa !28
  %23 = getelementptr inbounds nuw %class.expr_pattern_match, ptr %12, i32 0, i32 1
  %24 = call noundef i32 @_ZNK15ref_vector_coreI10quantifier19ref_manager_wrapperIS0_11ast_managerEE4sizeEv(ptr noundef nonnull align 8 dereferenceable(16) %23)
  %25 = icmp ult i32 %22, %24
  br i1 %25, label %27, label %26

26:                                               ; preds = %21
  store i32 2, ptr %11, align 4
  br label %38

27:                                               ; preds = %21
  %28 = load i32, ptr %10, align 4, !tbaa !28
  %29 = load ptr, ptr %7, align 8, !tbaa !20
  %30 = load ptr, ptr %8, align 8, !tbaa !22
  %31 = load ptr, ptr %9, align 8, !tbaa !24
  %32 = call noundef zeroext i1 @_ZN18expr_pattern_match16match_quantifierEjP10quantifierR10ref_vectorI3app11ast_managerERj(ptr noundef nonnull align 8 dereferenceable(64) %12, i32 noundef %28, ptr noundef %29, ptr noundef nonnull align 8 dereferenceable(16) %30, ptr noundef nonnull align 4 dereferenceable(4) %31)
  br i1 %32, label %33, label %34

33:                                               ; preds = %27
  store i1 true, ptr %5, align 1
  store i32 1, ptr %11, align 4
  br label %38

34:                                               ; preds = %27
  br label %35

35:                                               ; preds = %34
  %36 = load i32, ptr %10, align 4, !tbaa !28
  %37 = add i32 %36, 1
  store i32 %37, ptr %10, align 4, !tbaa !28
  br label %21, !llvm.loop !30

38:                                               ; preds = %33, %26
  call void @llvm.lifetime.end.p0(i64 4, ptr %10) #3
  %39 = load i32, ptr %11, align 4
  switch i32 %39, label %43 [
    i32 2, label %40
    i32 1, label %41
  ]

40:                                               ; preds = %38
  store i1 false, ptr %5, align 1
  br label %41

41:                                               ; preds = %40, %38, %15
  %42 = load i1, ptr %5, align 1
  ret i1 %42

43:                                               ; preds = %38
  unreachable
}