; Function Attrs: mustprogress uwtable
define hidden noundef zeroext i1 @_ZN18expr_pattern_match16match_quantifierEP10quantifierR10ref_vectorI3app11ast_managerERj(ptr noundef nonnull align 8 dereferenceable(64) %0, ptr noundef readonly captures(none) %1, ptr noundef nonnull align 8 dereferenceable(16) %2, ptr noundef nonnull writeonly align 4 captures(none) dereferenceable(4) %3) local_unnamed_addr #4 align 2 {
  %5 = getelementptr inbounds nuw i8, ptr %0, i64 40
  %6 = load ptr, ptr %5, align 8, !tbaa !8
  %7 = icmp eq ptr %6, null
  br i1 %7, label %_ZNK6vectorIP4exprLb0EjE5emptyEv.exit.thread, label %_ZNK6vectorIP4exprLb0EjE5emptyEv.exit

_ZNK6vectorIP4exprLb0EjE5emptyEv.exit:            ; preds = %4
  %8 = getelementptr inbounds i8, ptr %6, i64 -4
  %9 = load i32, ptr %8, align 4, !tbaa !12
  %10 = icmp eq i32 %9, 0
  br i1 %10, label %_ZNK6vectorIP4exprLb0EjE5emptyEv.exit.thread, label %11

11:                                               ; preds = %_ZNK6vectorIP4exprLb0EjE5emptyEv.exit
  %12 = getelementptr inbounds nuw i8, ptr %1, i64 24
  %13 = load ptr, ptr %12, align 8, !tbaa !14
  store ptr %13, ptr %6, align 8, !tbaa !24
  %14 = getelementptr inbounds nuw i8, ptr %0, i64 16
  br label %15

15:                                               ; preds = %21, %11
  %.09 = phi i32 [ 0, %11 ], [ %23, %21 ]
  %16 = load ptr, ptr %14, align 8, !tbaa !25
  %17 = icmp eq ptr %16, null
  br i1 %17, label %_ZNK15ref_vector_coreI10quantifier19ref_manager_wrapperIS0_11ast_managerEE4sizeEv.exit, label %18

18:                                               ; preds = %15
  %19 = getelementptr inbounds i8, ptr %16, i64 -4
  %20 = load i32, ptr %19, align 4, !tbaa !12
  br label %_ZNK15ref_vector_coreI10quantifier19ref_manager_wrapperIS0_11ast_managerEE4sizeEv.exit

_ZNK15ref_vector_coreI10quantifier19ref_manager_wrapperIS0_11ast_managerEE4sizeEv.exit: ; preds = %15, %18
  %.0.i.i = phi i32 [ %20, %18 ], [ 0, %15 ]
  %.not = icmp ult i32 %.09, %.0.i.i
  br i1 %.not, label %21, label %_ZNK6vectorIP4exprLb0EjE5emptyEv.exit.thread

21:                                               ; preds = %_ZNK15ref_vector_coreI10quantifier19ref_manager_wrapperIS0_11ast_managerEE4sizeEv.exit
  %22 = tail call noundef zeroext i1 @_ZN18expr_pattern_match16match_quantifierEjP10quantifierR10ref_vectorI3app11ast_managerERj(ptr noundef nonnull align 8 dereferenceable(64) %0, i32 noundef %.09, ptr noundef nonnull %1, ptr noundef nonnull align 8 dereferenceable(16) %2, ptr noundef nonnull align 4 dereferenceable(4) %3)
  %23 = add nuw i32 %.09, 1
  br i1 %22, label %_ZNK6vectorIP4exprLb0EjE5emptyEv.exit.thread, label %15, !llvm.loop !28

_ZNK6vectorIP4exprLb0EjE5emptyEv.exit.thread:     ; preds = %_ZNK15ref_vector_coreI10quantifier19ref_manager_wrapperIS0_11ast_managerEE4sizeEv.exit, %21, %4, %_ZNK6vectorIP4exprLb0EjE5emptyEv.exit
  %.010 = phi i1 [ false, %_ZNK6vectorIP4exprLb0EjE5emptyEv.exit ], [ false, %4 ], [ %.not, %21 ], [ %.not, %_ZNK15ref_vector_coreI10quantifier19ref_manager_wrapperIS0_11ast_managerEE4sizeEv.exit ]
  ret i1 %.010
}